Certificate:
    Data:
        Version: 3 (0x2)
        Serial Number: 16 (0x10)
        Signature Algorithm: sha256WithRSAEncryption
        Issuer: C=DE, L=Wiesbaden, O=Hochschule RheinMain, OU=Informatik, CN=hamsteriot
        Validity
            Not Before: Jun 19 07:23:17 2023 GMT
            Not After : Jul 19 07:23:17 2023 GMT
        Subject: C=DE, ST=Some-State, O=Internet Widgits Pty Ltd, CN=ddang001
        Subject Public Key Info:
            Public Key Algorithm: rsaEncryption
                RSA Public-Key: (4096 bit)
                Modulus:
                    00:b2:81:9f:f5:dd:76:29:cb:70:5d:75:59:f3:e4:
                    21:84:2b:ac:c3:8f:86:2e:35:6b:a7:95:da:c7:de:
                    75:8e:23:16:e6:73:88:d0:7a:70:a7:d3:59:c1:65:
                    ed:56:e3:06:57:bf:e7:c1:ca:40:6b:a8:99:dc:ad:
                    72:b7:a3:42:50:ae:95:78:f3:2d:cb:b9:71:8e:a6:
                    d3:3f:64:37:0b:09:98:22:15:b5:8c:d9:5b:2c:df:
                    e2:8e:93:9f:6b:3e:62:ca:91:19:2a:60:30:3e:67:
                    b9:fc:f7:5b:8d:78:74:4c:a1:8c:84:2b:1f:77:f3:
                    67:4b:64:a0:9d:73:b3:d7:b7:43:ad:fa:1e:f3:fe:
                    24:32:99:ba:aa:51:2c:8f:e3:d9:ee:e5:ce:e0:f1:
                    b9:59:23:07:ba:9c:ab:c2:8b:4a:78:7b:2c:fb:ab:
                    1b:bc:7b:c4:17:6a:9b:ee:c4:d7:8d:05:30:79:0b:
                    ad:28:66:94:6c:8e:1c:76:85:ae:29:8a:7d:0e:aa:
                    56:f7:d9:bb:25:dd:99:2e:1c:ad:d8:89:3d:7d:d7:
                    74:f1:84:77:07:35:34:54:3b:4a:c8:58:a5:fa:92:
                    64:28:4c:2e:aa:85:89:15:b4:df:e7:aa:fa:7f:71:
                    b0:82:06:15:8a:e8:2b:f6:28:67:89:f9:e1:70:3c:
                    79:dc:c7:00:02:9e:16:b8:0f:f2:0f:a2:d5:de:8d:
                    f1:53:65:dd:d9:51:c5:66:52:59:4b:53:30:c5:ce:
                    0a:ec:9c:4a:29:71:e3:b0:e2:f3:81:5e:35:de:33:
                    87:a5:ae:da:f7:24:cc:57:10:a7:28:a4:b9:c2:2d:
                    82:43:4a:3c:73:b6:12:e2:13:b3:29:86:44:7c:49:
                    41:bf:63:d4:1b:49:2b:50:ae:d4:4f:12:20:da:44:
                    17:73:61:a4:bc:13:ed:86:5f:10:79:e4:87:f5:93:
                    f9:be:7b:ba:ec:55:a1:56:d9:17:eb:38:3b:4a:18:
                    ab:9d:28:ea:4e:2d:92:aa:f1:e2:c5:51:c3:ab:76:
                    45:ee:3b:40:f0:2b:c4:8f:9c:cf:e9:5f:0d:ea:ee:
                    29:e2:30:e0:84:fe:96:3a:80:7d:57:19:6d:01:52:
                    cd:6c:83:9e:b8:1d:54:8f:95:82:59:fd:76:3a:62:
                    91:8f:c4:8e:75:71:9d:bb:44:ce:2d:d2:e1:05:10:
                    41:79:65:50:54:04:f4:36:81:c5:5c:34:35:11:c1:
                    75:05:41:5f:60:05:26:55:41:99:fd:59:0d:7a:bd:
                    95:d9:bc:1e:14:88:52:7c:bc:7b:68:ab:9c:f3:61:
                    0e:3e:cf:29:37:93:0d:c1:a0:ad:13:e1:45:a4:3b:
                    c0:bc:15
                Exponent: 65537 (0x10001)
        X509v3 extensions:
            X509v3 Subject Key Identifier: 
                31:04:A6:09:9E:19:5D:69:0B:39:9F:89:62:09:75:8D:0E:62:C8:03
            X509v3 Authority Key Identifier: 
                keyid:1C:E9:43:13:3C:AE:D0:9A:A2:FF:4E:0B:9B:0A:BE:E0:1C:10:FC:C6

            X509v3 Basic Constraints: 
                CA:FALSE
            X509v3 Key Usage: 
                Digital Signature, Key Encipherment
    Signature Algorithm: sha256WithRSAEncryption
         ce:a0:0f:40:58:80:b2:61:25:c0:75:f2:76:f7:19:13:f3:ca:
         66:f7:7b:77:00:eb:56:50:b7:04:9d:f8:a5:97:0b:51:6e:2b:
         84:bd:ff:79:af:7d:6b:24:b4:29:ff:3f:a2:9e:9c:0d:19:54:
         56:94:fe:ab:54:02:f2:c7:1d:92:e8:c4:12:5c:56:45:76:49:
         89:29:5b:06:23:96:1f:e5:b3:34:34:70:a2:f9:59:d5:83:93:
         62:47:45:41:a9:5a:19:3b:6e:3a:d1:42:d9:8e:47:ee:09:7c:
         28:09:fa:3b:79:4b:a9:93:ee:b7:6a:f0:e4:0f:23:95:0a:05:
         76:ba:41:af:9a:f3:2a:12:3b:c7:60:21:d2:ce:26:8f:ac:7e:
         b6:09:77:53:69:4e:36:d9:e3:9e:f8:cf:f6:0c:c6:f9:e7:73:
         ac:73:94:8e:bf:2e:2e:b1:0d:db:75:77:52:d0:74:da:86:c3:
         14:59:9d:97:a9:cc:39:83:cd:2d:10:42:71:63:43:69:ae:59:
         3c:44:c5:15:af:9e:8f:d3:10:af:db:df:b4:30:90:b8:71:da:
         0c:7f:25:45:a4:90:55:e7:f3:b2:27:32:bd:f0:65:4b:95:28:
         da:c5:32:ec:8d:d1:48:69:0a:02:89:7b:b4:1b:a9:c0:ae:6d:
         1a:83:c2:43:d9:69:bf:66:eb:4d:87:89:ba:f1:ea:20:67:9a:
         7e:ab:ea:35:b1:38:48:de:44:a9:f2:88:71:2c:17:8f:c3:6b:
         a5:d0:18:1e:c8:53:dc:3b:8b:b9:3e:4f:95:83:09:f2:e6:82:
         3e:70:19:cc:73:3a:51:d0:74:bc:e7:33:d2:7c:78:a8:85:4b:
         92:32:48:72:b8:f2:1e:f7:13:34:c6:ea:49:ab:7b:c0:47:8f:
         b5:27:54:ae:3a:5f:b1:80:8f:43:82:ab:39:0e:89:20:79:9f:
         76:22:aa:89:61:27:5a:63:37:de:13:5a:55:66:7d:e3:e7:14:
         0e:50:65:fc:d1:08:ed:1d:03:1e:55:52:52:92:d9:99:4a:0a:
         5d:bd:05:fa:ee:99:74:61:24:7e:fc:30:b6:1c:cf:1b:16:6c:
         6e:98:5e:23:7a:7d:5c:5a:9c:83:cf:c4:9e:5a:71:ab:e2:2c:
         9d:bd:83:6a:8b:7b:6a:9b:8a:40:08:9a:2d:b2:77:72:68:19:
         97:9f:87:16:c6:80:0d:35:78:94:23:cb:67:f0:67:74:42:46:
         2c:7f:d0:23:aa:a5:cc:49:24:08:81:90:6b:1f:26:79:41:32:
         b6:4b:fd:59:9f:fa:2f:78:b2:fe:8b:ae:a2:7b:1e:8e:8b:21:
         12:5b:a5:cb:f7:ac:9c:d3
-----BEGIN CERTIFICATE-----
MIIFlzCCA3+gAwIBAgIBEDANBgkqhkiG9w0BAQsFADBqMQswCQYDVQQGEwJERTES
MBAGA1UEBwwJV2llc2JhZGVuMR0wGwYDVQQKDBRIb2Noc2NodWxlIFJoZWluTWFp
bjETMBEGA1UECwwKSW5mb3JtYXRpazETMBEGA1UEAwwKaGFtc3RlcmlvdDAeFw0y
MzA2MTkwNzIzMTdaFw0yMzA3MTkwNzIzMTdaMFgxCzAJBgNVBAYTAkRFMRMwEQYD
VQQIDApTb21lLVN0YXRlMSEwHwYDVQQKDBhJbnRlcm5ldCBXaWRnaXRzIFB0eSBM
dGQxETAPBgNVBAMMCGRkYW5nMDAxMIICIjANBgkqhkiG9w0BAQEFAAOCAg8AMIIC
CgKCAgEAsoGf9d12KctwXXVZ8+QhhCusw4+GLjVrp5Xax951jiMW5nOI0Hpwp9NZ
wWXtVuMGV7/nwcpAa6iZ3K1yt6NCUK6VePMty7lxjqbTP2Q3CwmYIhW1jNlbLN/i
jpOfaz5iypEZKmAwPme5/PdbjXh0TKGMhCsfd/NnS2SgnXOz17dDrfoe8/4kMpm6
qlEsj+PZ7uXO4PG5WSMHupyrwotKeHss+6sbvHvEF2qb7sTXjQUweQutKGaUbI4c
doWuKYp9DqpW99m7Jd2ZLhyt2Ik9fdd08YR3BzU0VDtKyFil+pJkKEwuqoWJFbTf
56r6f3GwggYViugr9ihnifnhcDx53McAAp4WuA/yD6LV3o3xU2Xd2VHFZlJZS1Mw
xc4K7JxKKXHjsOLzgV413jOHpa7a9yTMVxCnKKS5wi2CQ0o8c7YS4hOzKYZEfElB
v2PUG0krUK7UTxIg2kQXc2GkvBPthl8QeeSH9ZP5vnu67FWhVtkX6zg7ShirnSjq
Ti2SqvHixVHDq3ZF7jtA8CvEj5zP6V8N6u4p4jDghP6WOoB9VxltAVLNbIOeuB1U
j5WCWf12OmKRj8SOdXGdu0TOLdLhBRBBeWVQVAT0NoHFXDQ1EcF1BUFfYAUmVUGZ
/VkNer2V2bweFIhSfLx7aKuc82EOPs8pN5MNwaCtE+FFpDvAvBUCAwEAAaNaMFgw
HQYDVR0OBBYEFDEEpgmeGV1pCzmfiWIJdY0OYsgDMB8GA1UdIwQYMBaAFBzpQxM8
rtCaov9OC5sKvuAcEPzGMAkGA1UdEwQCMAAwCwYDVR0PBAQDAgWgMA0GCSqGSIb3
DQEBCwUAA4ICAQDOoA9AWICyYSXAdfJ29xkT88pm93t3AOtWULcEnfillwtRbiuE
vf95r31rJLQp/z+inpwNGVRWlP6rVALyxx2S6MQSXFZFdkmJKVsGI5Yf5bM0NHCi
+VnVg5NiR0VBqVoZO2460ULZjkfuCXwoCfo7eUupk+63avDkDyOVCgV2ukGvmvMq
EjvHYCHSziaPrH62CXdTaU422eOe+M/2DMb553Osc5SOvy4usQ3bdXdS0HTahsMU
WZ2Xqcw5g80tEEJxY0Nprlk8RMUVr56P0xCv29+0MJC4cdoMfyVFpJBV5/OyJzK9
8GVLlSjaxTLsjdFIaQoCiXu0G6nArm0ag8JD2Wm/ZutNh4m68eogZ5p+q+o1sThI
3kSp8ohxLBePw2ul0BgeyFPcO4u5Pk+Vgwny5oI+cBnMczpR0HS85zPSfHiohUuS
MkhyuPIe9xM0xupJq3vAR4+1J1SuOl+xgI9Dgqs5DokgeZ92IqqJYSdaYzfeE1pV
Zn3j5xQOUGX80QjtHQMeVVJSktmZSgpdvQX67pl0YSR+/DC2HM8bFmxumF4jen1c
WpyDz8SeWnGr4iydvYNqi3tqm4pACJotsndyaBmXn4cWxoANNXiUI8tn8Gd0QkYs
f9AjqqXMSSQIgZBrHyZ5QTK2S/1Zn/oveLL+i66iex6OiyESW6XL96yc0w==
-----END CERTIFICATE-----
